target datalayout = "e-m:e-p270:32:32-p271:32:32-p272:64:64-i64:64-i128:128-f80:128-n8:16:32:64-S128"
target triple = "x86_64-pc-linux-gnu"

@.str = private unnamed_addr constant [18 x i8] c"Diameter Protocol\00", align 1
@.str.1 = private unnamed_addr constant [9 x i8] c"Diameter\00", align 1
@.str.2 = private unnamed_addr constant [9 x i8] c"diameter\00", align 1
@proto_diameter = internal global i32 0, align 4
@diameter_sctp_handle = internal global ptr null, align 8
@diameter_udp_handle = internal global ptr null, align 8
@.str.3 = private unnamed_addr constant [13 x i8] c"diameter.tcp\00", align 1
@diameter_tcp_handle = internal global ptr null, align 8
@.str.4 = private unnamed_addr constant [14 x i8] c"diameter_avps\00", align 1
@.str.5 = private unnamed_addr constant [14 x i8] c"diameter.base\00", align 1
@.str.6 = private unnamed_addr constant [18 x i8] c"Diameter Base AVP\00", align 1
@diameter_dissector_table = internal global ptr null, align 8
@.str.7 = private unnamed_addr constant [14 x i8] c"diameter.3gpp\00", align 1
@.str.8 = private unnamed_addr constant [18 x i8] c"Diameter 3GPP AVP\00", align 1
@diameter_3gpp_avp_dissector_table = internal global ptr null, align 8
@.str.9 = private unnamed_addr constant [18 x i8] c"diameter.ericsson\00", align 1
@.str.10 = private unnamed_addr constant [22 x i8] c"Diameter Ericsson AVP\00", align 1
@diameter_ericsson_avp_dissector_table = internal global ptr null, align 8
@.str.11 = private unnamed_addr constant [17 x i8] c"diameter.verizon\00", align 1
@.str.12 = private unnamed_addr constant [22 x i8] c"DIAMETER_VERIZON_AVPS\00", align 1
@diameter_verizon_avp_dissector_table = internal global ptr null, align 8
@.str.13 = private unnamed_addr constant [21 x i8] c"diameter.vnd_exp_res\00", align 1
@.str.14 = private unnamed_addr constant [34 x i8] c"Diameter Experimental-Result-Code\00", align 1
@diameter_expr_result_vnd_table = internal global ptr null, align 8
@.str.15 = private unnamed_addr constant [10 x i8] c"desegment\00", align 1
@.str.16 = private unnamed_addr constant [60 x i8] c"Reassemble Diameter messages spanning multiple TCP segments\00", align 1
@.str.17 = private unnamed_addr constant [209 x i8] c"Whether the Diameter dissector should reassemble messages spanning multiple TCP segments. To use this option, you must also enable \22Allow subdissectors to reassemble TCP streams\22 in the TCP protocol settings.\00", align 1
@gbl_diameter_desegment = internal global i8 1, align 1
@.str.18 = private unnamed_addr constant [8 x i8] c"version\00", align 1
@.str.19 = private unnamed_addr constant [18 x i8] c"command_in_header\00", align 1
@.str.20 = private unnamed_addr constant [16 x i8] c"dictionary.name\00", align 1
@.str.21 = private unnamed_addr constant [15 x i8] c"dictionary.use\00", align 1
@.str.22 = private unnamed_addr constant [21 x i8] c"allow_zero_as_app_id\00", align 1
@.str.23 = private unnamed_addr constant [24 x i8] c"suppress_console_output\00", align 1
@diameter_tap = internal global i32 0, align 4

; Function Attrs: null_pointer_is_valid sspstrong uwtable
define hidden void @proto_register_diameter() #0 {
  %1 = alloca ptr, align 8
  call void @llvm.lifetime.start.p0(i64 8, ptr %1) #14
  %2 = call i32 @proto_register_protocol(ptr noundef @.str, ptr noundef @.str.1, ptr noundef @.str.2)
  store i32 %2, ptr @proto_diameter, align 4
  %3 = load i32, ptr @proto_diameter, align 4
  %4 = call ptr @register_dissector(ptr noundef @.str.2, ptr noundef @dissect_diameter, i32 noundef %3)
  store ptr %4, ptr @diameter_sctp_handle, align 8
  %5 = load i32, ptr @proto_diameter, align 4
  %6 = call ptr @create_dissector_handle(ptr noundef @dissect_diameter, i32 noundef %5)
  store ptr %6, ptr @diameter_udp_handle, align 8
  %7 = load i32, ptr @proto_diameter, align 4
  %8 = call ptr @register_dissector(ptr noundef @.str.3, ptr noundef @dissect_diameter_tcp, i32 noundef %7)
  store ptr %8, ptr @diameter_tcp_handle, align 8
  %9 = load i32, ptr @proto_diameter, align 4
  %10 = call ptr @register_dissector(ptr noundef @.str.4, ptr noundef @dissect_diameter_avps, i32 noundef %9)
  call void @proto_register_prefix(ptr noundef @.str.2, ptr noundef @register_diameter_fields)
  %11 = load i32, ptr @proto_diameter, align 4
  %12 = call ptr @register_dissector_table(ptr noundef @.str.5, ptr noundef @.str.6, i32 noundef %11, i32 noundef 7, i32 noundef 1)
  store ptr %12, ptr @diameter_dissector_table, align 8
  %13 = load i32, ptr @proto_diameter, align 4
  %14 = call ptr @register_dissector_table(ptr noundef @.str.7, ptr noundef @.str.8, i32 noundef %13, i32 noundef 7, i32 noundef 1)
  store ptr %14, ptr @diameter_3gpp_avp_dissector_table, align 8
  %15 = load i32, ptr @proto_diameter, align 4
  %16 = call ptr @register_dissector_table(ptr noundef @.str.9, ptr noundef @.str.10, i32 noundef %15, i32 noundef 7, i32 noundef 1)
  store ptr %16, ptr @diameter_ericsson_avp_dissector_table, align 8
  %17 = load i32, ptr @proto_diameter, align 4
  %18 = call ptr @register_dissector_table(ptr noundef @.str.11, ptr noundef @.str.12, i32 noundef %17, i32 noundef 7, i32 noundef 1)
  store ptr %18, ptr @diameter_verizon_avp_dissector_table, align 8
  %19 = load i32, ptr @proto_diameter, align 4
  %20 = call ptr @register_dissector_table(ptr noundef @.str.13, ptr noundef @.str.14, i32 noundef %19, i32 noundef 7, i32 noundef 1)
  store ptr %20, ptr @diameter_expr_result_vnd_table, align 8
  %21 = load i32, ptr @proto_diameter, align 4
  %22 = call ptr @prefs_register_protocol(i32 noundef %21, ptr noundef null)
  store ptr %22, ptr %1, align 8
  %23 = load ptr, ptr %1, align 8
  call void @prefs_register_module_alias(ptr noundef @.str.1, ptr noundef %23)
  %24 = load ptr, ptr %1, align 8
  call void @prefs_register_bool_preference(ptr noundef %24, ptr noundef @.str.15, ptr noundef @.str.16, ptr noundef @.str.17, ptr noundef @gbl_diameter_desegment)
  %25 = load ptr, ptr %1, align 8
  call void @prefs_register_obsolete_preference(ptr noundef %25, ptr noundef @.str.18)
  %26 = load ptr, ptr %1, align 8
  call void @prefs_register_obsolete_preference(ptr noundef %26, ptr noundef @.str.19)
  %27 = load ptr, ptr %1, align 8
  call void @prefs_register_obsolete_preference(ptr noundef %27, ptr noundef @.str.20)
  %28 = load ptr, ptr %1, align 8
  call void @prefs_register_obsolete_preference(ptr noundef %28, ptr noundef @.str.21)
  %29 = load ptr, ptr %1, align 8
  call void @prefs_register_obsolete_preference(ptr noundef %29, ptr noundef @.str.22)
  %30 = load ptr, ptr %1, align 8
  call void @prefs_register_obsolete_preference(ptr noundef %30, ptr noundef @.str.23)
  %31 = call i32 @register_tap(ptr noundef @.str.2)
  store i32 %31, ptr @diameter_tap, align 4
  %32 = load i32, ptr @proto_diameter, align 4
  call void @register_srt_table(i32 noundef %32, ptr noundef null, i32 noundef 1, ptr noundef @diameterstat_packet, ptr noundef @diameterstat_init, ptr noundef null)
  call void @llvm.lifetime.end.p0(i64 8, ptr %1) #14
  ret void
}