; Function Attrs: null_pointer_is_valid sspstrong uwtable
define hidden void @proto_register_diameter() local_unnamed_addr #0 {
  %1 = tail call i32 @proto_register_protocol(ptr noundef nonnull @.str, ptr noundef nonnull @.str.1, ptr noundef nonnull @.str.2)
  store i32 %1, ptr @proto_diameter, align 4
  %2 = tail call ptr @register_dissector(ptr noundef nonnull @.str.2, ptr noundef nonnull @dissect_diameter, i32 noundef %1)
  store ptr %2, ptr @diameter_sctp_handle, align 8
  %3 = load i32, ptr @proto_diameter, align 4
  %4 = tail call ptr @create_dissector_handle(ptr noundef nonnull @dissect_diameter, i32 noundef %3)
  store ptr %4, ptr @diameter_udp_handle, align 8
  %5 = load i32, ptr @proto_diameter, align 4
  %6 = tail call ptr @register_dissector(ptr noundef nonnull @.str.3, ptr noundef nonnull @dissect_diameter_tcp, i32 noundef %5)
  store ptr %6, ptr @diameter_tcp_handle, align 8
  %7 = load i32, ptr @proto_diameter, align 4
  %8 = tail call ptr @register_dissector(ptr noundef nonnull @.str.4, ptr noundef nonnull @dissect_diameter_avps, i32 noundef %7)
  tail call void @proto_register_prefix(ptr noundef nonnull @.str.2, ptr noundef nonnull @register_diameter_fields)
  %9 = load i32, ptr @proto_diameter, align 4
  %10 = tail call ptr @register_dissector_table(ptr noundef nonnull @.str.5, ptr noundef nonnull @.str.6, i32 noundef %9, i32 noundef 7, i32 noundef 1)
  store ptr %10, ptr @diameter_dissector_table, align 8
  %11 = load i32, ptr @proto_diameter, align 4
  %12 = tail call ptr @register_dissector_table(ptr noundef nonnull @.str.7, ptr noundef nonnull @.str.8, i32 noundef %11, i32 noundef 7, i32 noundef 1)
  store ptr %12, ptr @diameter_3gpp_avp_dissector_table, align 8
  %13 = load i32, ptr @proto_diameter, align 4
  %14 = tail call ptr @register_dissector_table(ptr noundef nonnull @.str.9, ptr noundef nonnull @.str.10, i32 noundef %13, i32 noundef 7, i32 noundef 1)
  store ptr %14, ptr @diameter_ericsson_avp_dissector_table, align 8
  %15 = load i32, ptr @proto_diameter, align 4
  %16 = tail call ptr @register_dissector_table(ptr noundef nonnull @.str.11, ptr noundef nonnull @.str.12, i32 noundef %15, i32 noundef 7, i32 noundef 1)
  store ptr %16, ptr @diameter_verizon_avp_dissector_table, align 8
  %17 = load i32, ptr @proto_diameter, align 4
  %18 = tail call ptr @register_dissector_table(ptr noundef nonnull @.str.13, ptr noundef nonnull @.str.14, i32 noundef %17, i32 noundef 7, i32 noundef 1)
  store ptr %18, ptr @diameter_expr_result_vnd_table, align 8
  %19 = load i32, ptr @proto_diameter, align 4
  %20 = tail call ptr @prefs_register_protocol(i32 noundef %19, ptr noundef null)
  tail call void @prefs_register_module_alias(ptr noundef nonnull @.str.1, ptr noundef %20)
  tail call void @prefs_register_bool_preference(ptr noundef %20, ptr noundef nonnull @.str.15, ptr noundef nonnull @.str.16, ptr noundef nonnull @.str.17, ptr noundef nonnull @gbl_diameter_desegment)
  tail call void @prefs_register_obsolete_preference(ptr noundef %20, ptr noundef nonnull @.str.18)
  tail call void @prefs_register_obsolete_preference(ptr noundef %20, ptr noundef nonnull @.str.19)
  tail call void @prefs_register_obsolete_preference(ptr noundef %20, ptr noundef nonnull @.str.20)
  tail call void @prefs_register_obsolete_preference(ptr noundef %20, ptr noundef nonnull @.str.21)
  tail call void @prefs_register_obsolete_preference(ptr noundef %20, ptr noundef nonnull @.str.22)
  tail call void @prefs_register_obsolete_preference(ptr noundef %20, ptr noundef nonnull @.str.23)
  %21 = tail call i32 @register_tap(ptr noundef nonnull @.str.2)
  store i32 %21, ptr @diameter_tap, align 4
  %22 = load i32, ptr @proto_diameter, align 4
  tail call void @register_srt_table(i32 noundef %22, ptr noundef null, i32 noundef 1, ptr noundef nonnull @diameterstat_packet, ptr noundef nonnull @diameterstat_init, ptr noundef null)
  ret void
}